; Function Attrs: mustprogress uwtable
define internal void @_ZN12_GLOBAL__N_19ImplPosix12OnAllocateCBEP11uv_handle_smP8uv_buf_t(ptr nocapture noundef readonly %0, i64 %1, ptr nocapture noundef writeonly %2) #3 align 2 {
  %4 = load ptr, ptr %0, align 8
  %5 = getelementptr inbounds i8, ptr %4, i64 176
  %6 = tail call { ptr, i64 } @uv_buf_init(ptr noundef nonnull %5, i32 noundef 1)
  %7 = extractvalue { ptr, i64 } %6, 0
  %8 = extractvalue { ptr, i64 } %6, 1
  store ptr %7, ptr %2, align 8
  %.sroa.2.0..sroa_idx.i = getelementptr inbounds i8, ptr %2, i64 8
  store i64 %8, ptr %.sroa.2.0..sroa_idx.i, align 8
  ret void
}